; ModuleID = '55/1587.c'
source_filename = "55/1587.c"
target datalayout = "e-m:e-p270:32:32-p271:32:32-p272:64:64-i64:64-f80:128-n8:16:32:64-S128"
target triple = "x86_64-pc-linux-gnu"

@.str = private unnamed_addr constant [7 x i8] c"%d%s%d\00", align 1
@.str.1 = private unnamed_addr constant [3 x i8] c"%s\00", align 1

; Function Attrs: noinline nounwind uwtable
define dso_local i32 @main() #0 {
  %1 = alloca i32, align 4
  %2 = alloca i32, align 4
  %3 = alloca i32, align 4
  %4 = alloca i32, align 4
  %5 = alloca i32, align 4
  %6 = alloca i32, align 4
  %7 = alloca i32, align 4
  %8 = alloca i32, align 4
  %9 = alloca [100 x i8], align 16
  %10 = alloca [100 x i8], align 16
  %11 = alloca i8, align 1
  store i32 0, i32* %1, align 4
  store i32 0, i32* %8, align 4
  %12 = bitcast [100 x i8]* %9 to i8*
  call void @llvm.memset.p0i8.i64(i8* align 16 %12, i8 0, i64 100, i1 false)
  %13 = bitcast [100 x i8]* %10 to i8*
  call void @llvm.memset.p0i8.i64(i8* align 16 %13, i8 0, i64 100, i1 false)
  %14 = getelementptr inbounds [100 x i8], [100 x i8]* %9, i64 0, i64 0
  %15 = call i32 (i8*, ...) @__isoc99_scanf(i8* getelementptr inbounds ([7 x i8], [7 x i8]* @.str, i64 0, i64 0), i32* %5, i8* %14, i32* %6)
  store i32 0, i32* %3, align 4
  br label %16

16:                                               ; preds = %49, %0
  %17 = load i32, i32* %3, align 4
  %18 = sext i32 %17 to i64
  %19 = getelementptr inbounds [100 x i8], [100 x i8]* %9, i64 0, i64 %18
  %20 = load i8, i8* %19, align 1
  %21 = icmp ne i8 %20, 0
  br i1 %21, label %22, label %52

22:                                               ; preds = %16
  %23 = load i32, i32* %3, align 4
  %24 = sext i32 %23 to i64
  %25 = getelementptr inbounds [100 x i8], [100 x i8]* %9, i64 0, i64 %24
  %26 = load i8, i8* %25, align 1
  %27 = sext i8 %26 to i32
  %28 = icmp sle i32 %27, 90
  br i1 %28, label %29, label %48

29:                                               ; preds = %22
  %30 = load i32, i32* %3, align 4
  %31 = sext i32 %30 to i64
  %32 = getelementptr inbounds [100 x i8], [100 x i8]* %9, i64 0, i64 %31
  %33 = load i8, i8* %32, align 1
  %34 = sext i8 %33 to i32
  %35 = icmp sge i32 %34, 65
  br i1 %35, label %36, label %48

36:                                               ; preds = %29
  %37 = load i32, i32* %3, align 4
  %38 = sext i32 %37 to i64
  %39 = getelementptr inbounds [100 x i8], [100 x i8]* %9, i64 0, i64 %38
  %40 = load i8, i8* %39, align 1
  %41 = sext i8 %40 to i32
  %42 = sub nsw i32 %41, 65
  %43 = add nsw i32 %42, 97
  %44 = trunc i32 %43 to i8
  %45 = load i32, i32* %3, align 4
  %46 = sext i32 %45 to i64
  %47 = getelementptr inbounds [100 x i8], [100 x i8]* %9, i64 0, i64 %46
  store i8 %44, i8* %47, align 1
  br label %48

48:                                               ; preds = %36, %29, %22
  br label %49

49:                                               ; preds = %48
  %50 = load i32, i32* %3, align 4
  %51 = add nsw i32 %50, 1
  store i32 %51, i32* %3, align 4
  br label %16

52:                                               ; preds = %16
  store i32 0, i32* %3, align 4
  br label %53

53:                                               ; preds = %97, %52
  %54 = load i32, i32* %3, align 4
  %55 = sext i32 %54 to i64
  %56 = getelementptr inbounds [100 x i8], [100 x i8]* %9, i64 0, i64 %55
  %57 = load i8, i8* %56, align 1
  %58 = icmp ne i8 %57, 0
  br i1 %58, label %59, label %100

59:                                               ; preds = %53
  %60 = load i32, i32* %3, align 4
  %61 = sext i32 %60 to i64
  %62 = getelementptr inbounds [100 x i8], [100 x i8]* %9, i64 0, i64 %61
  %63 = load i8, i8* %62, align 1
  %64 = sext i8 %63 to i32
  %65 = icmp sle i32 %64, 122
  br i1 %65, label %66, label %85

66:                                               ; preds = %59
  %67 = load i32, i32* %3, align 4
  %68 = sext i32 %67 to i64
  %69 = getelementptr inbounds [100 x i8], [100 x i8]* %9, i64 0, i64 %68
  %70 = load i8, i8* %69, align 1
  %71 = sext i8 %70 to i32
  %72 = icmp sge i32 %71, 97
  br i1 %72, label %73, label %85

73:                                               ; preds = %66
  %74 = load i32, i32* %8, align 4
  %75 = load i32, i32* %5, align 4
  %76 = mul nsw i32 %74, %75
  %77 = load i32, i32* %3, align 4
  %78 = sext i32 %77 to i64
  %79 = getelementptr inbounds [100 x i8], [100 x i8]* %9, i64 0, i64 %78
  %80 = load i8, i8* %79, align 1
  %81 = sext i8 %80 to i32
  %82 = add nsw i32 %76, %81
  %83 = sub nsw i32 %82, 97
  %84 = add nsw i32 %83, 10
  store i32 %84, i32* %8, align 4
  br label %96

85:                                               ; preds = %66, %59
  %86 = load i32, i32* %8, align 4
  %87 = load i32, i32* %5, align 4
  %88 = mul nsw i32 %86, %87
  %89 = load i32, i32* %3, align 4
  %90 = sext i32 %89 to i64
  %91 = getelementptr inbounds [100 x i8], [100 x i8]* %9, i64 0, i64 %90
  %92 = load i8, i8* %91, align 1
  %93 = sext i8 %92 to i32
  %94 = add nsw i32 %88, %93
  %95 = sub nsw i32 %94, 48
  store i32 %95, i32* %8, align 4
  br label %96

96:                                               ; preds = %85, %73
  br label %97

97:                                               ; preds = %96
  %98 = load i32, i32* %3, align 4
  %99 = add nsw i32 %98, 1
  store i32 %99, i32* %3, align 4
  br label %53

100:                                              ; preds = %53
  store i32 0, i32* %3, align 4
  br label %101

101:                                              ; preds = %134, %100
  br i1 true, label %102, label %137

102:                                              ; preds = %101
  %103 = load i32, i32* %8, align 4
  %104 = load i32, i32* %6, align 4
  %105 = srem i32 %103, %104
  store i32 %105, i32* %7, align 4
  %106 = load i32, i32* %7, align 4
  %107 = icmp sle i32 %106, 9
  br i1 %107, label %108, label %118

108:                                              ; preds = %102
  %109 = load i32, i32* %7, align 4
  %110 = icmp sge i32 %109, 0
  br i1 %110, label %111, label %118

111:                                              ; preds = %108
  %112 = load i32, i32* %7, align 4
  %113 = add nsw i32 %112, 48
  %114 = trunc i32 %113 to i8
  %115 = load i32, i32* %3, align 4
  %116 = sext i32 %115 to i64
  %117 = getelementptr inbounds [100 x i8], [100 x i8]* %10, i64 0, i64 %116
  store i8 %114, i8* %117, align 1
  br label %126

118:                                              ; preds = %108, %102
  %119 = load i32, i32* %7, align 4
  %120 = sub nsw i32 %119, 10
  %121 = add nsw i32 %120, 65
  %122 = trunc i32 %121 to i8
  %123 = load i32, i32* %3, align 4
  %124 = sext i32 %123 to i64
  %125 = getelementptr inbounds [100 x i8], [100 x i8]* %10, i64 0, i64 %124
  store i8 %122, i8* %125, align 1
  br label %126

126:                                              ; preds = %118, %111
  %127 = load i32, i32* %8, align 4
  %128 = load i32, i32* %6, align 4
  %129 = sdiv i32 %127, %128
  store i32 %129, i32* %8, align 4
  %130 = load i32, i32* %8, align 4
  %131 = icmp eq i32 %130, 0
  br i1 %131, label %132, label %133

132:                                              ; preds = %126
  br label %137

133:                                              ; preds = %126
  br label %134

134:                                              ; preds = %133
  %135 = load i32, i32* %3, align 4
  %136 = add nsw i32 %135, 1
  store i32 %136, i32* %3, align 4
  br label %101

137:                                              ; preds = %132, %101
  %138 = getelementptr inbounds [100 x i8], [100 x i8]* %10, i64 0, i64 0
  %139 = call i64 @strlen(i8* %138) #4
  %140 = trunc i64 %139 to i32
  store i32 %140, i32* %8, align 4
  store i32 0, i32* %3, align 4
  br label %141

141:                                              ; preds = %169, %137
  %142 = load i32, i32* %3, align 4
  %143 = load i32, i32* %8, align 4
  %144 = load i32, i32* %3, align 4
  %145 = sub nsw i32 %143, %144
  %146 = icmp slt i32 %142, %145
  br i1 %146, label %147, label %172

147:                                              ; preds = %141
  %148 = load i32, i32* %3, align 4
  %149 = sext i32 %148 to i64
  %150 = getelementptr inbounds [100 x i8], [100 x i8]* %10, i64 0, i64 %149
  %151 = load i8, i8* %150, align 1
  store i8 %151, i8* %11, align 1
  %152 = load i32, i32* %8, align 4
  %153 = load i32, i32* %3, align 4
  %154 = sub nsw i32 %152, %153
  %155 = sub nsw i32 %154, 1
  %156 = sext i32 %155 to i64
  %157 = getelementptr inbounds [100 x i8], [100 x i8]* %10, i64 0, i64 %156
  %158 = load i8, i8* %157, align 1
  %159 = load i32, i32* %3, align 4
  %160 = sext i32 %159 to i64
  %161 = getelementptr inbounds [100 x i8], [100 x i8]* %10, i64 0, i64 %160
  store i8 %158, i8* %161, align 1
  %162 = load i8, i8* %11, align 1
  %163 = load i32, i32* %8, align 4
  %164 = load i32, i32* %3, align 4
  %165 = sub nsw i32 %163, %164
  %166 = sub nsw i32 %165, 1
  %167 = sext i32 %166 to i64
  %168 = getelementptr inbounds [100 x i8], [100 x i8]* %10, i64 0, i64 %167
  store i8 %162, i8* %168, align 1
  br label %169

169:                                              ; preds = %147
  %170 = load i32, i32* %3, align 4
  %171 = add nsw i32 %170, 1
  store i32 %171, i32* %3, align 4
  br label %141

172:                                              ; preds = %141
  %173 = getelementptr inbounds [100 x i8], [100 x i8]* %10, i64 0, i64 0
  %174 = call i32 (i8*, ...) @printf(i8* getelementptr inbounds ([3 x i8], [3 x i8]* @.str.1, i64 0, i64 0), i8* %173)
  ret i32 0
}

; Function Attrs: argmemonly nounwind willreturn
declare void @llvm.memset.p0i8.i64(i8* nocapture writeonly, i8, i64, i1 immarg) #1

declare dso_local i32 @__isoc99_scanf(i8*, ...) #2

; Function Attrs: nounwind readonly
declare dso_local i64 @strlen(i8*) #3

declare dso_local i32 @printf(i8*, ...) #2


!llvm.module.flags = !{!0}
!llvm.ident = !{!1}

!0 = !{i32 1, !"wchar_size", i32 4}
!1 = !{!"clang version 10.0.0-4ubuntu1 "}
